; Function Attrs: nofree norecurse nosync nounwind memory(readwrite, inaccessiblemem: none) uwtable
define void @Abc_NtkFinLocalSetdown(ptr noundef readonly captures(none) %0, ptr noundef readonly captures(none) %1, ptr noundef readonly captures(none) %2) local_unnamed_addr #11 {
  %4 = getelementptr i8, ptr %1, i64 4
  %.val1012 = load i32, ptr %4, align 4, !tbaa !37
  %5 = icmp sgt i32 %.val1012, 0
  br i1 %5, label %.lr.ph, label %.critedge

.lr.ph:                                           ; preds = %3
  %6 = getelementptr i8, ptr %1, i64 8
  %.val9 = load ptr, ptr %6, align 8, !tbaa !36
  %7 = getelementptr i8, ptr %0, i64 8
  %.val = load ptr, ptr %7, align 8, !tbaa !36
  %8 = getelementptr i8, ptr %2, i64 8
  %.val11 = load ptr, ptr %8, align 8, !tbaa !90
  br label %9

9:                                                ; preds = %.lr.ph, %9
  %indvars.iv = phi i64 [ 0, %.lr.ph ], [ %indvars.iv.next, %9 ]
  %10 = getelementptr inbounds nuw i32, ptr %.val9, i64 %indvars.iv
  %11 = load i32, ptr %10, align 4, !tbaa !34
  %12 = shl nsw i32 %11, 1
  %13 = sext i32 %12 to i64
  %14 = getelementptr inbounds i32, ptr %.val, i64 %13
  %15 = load i32, ptr %14, align 4, !tbaa !34
  %16 = sext i32 %15 to i64
  %17 = getelementptr inbounds %struct.Vec_Int_t_, ptr %.val11, i64 %16, i32 1
  store i32 0, ptr %17, align 4, !tbaa !37
  %indvars.iv.next = add nuw nsw i64 %indvars.iv, 1
  %.val10 = load i32, ptr %4, align 4, !tbaa !37
  %18 = sext i32 %.val10 to i64
  %19 = icmp slt i64 %indvars.iv.next, %18
  br i1 %19, label %9, label %.critedge, !llvm.loop !175

.critedge:                                        ; preds = %9, %3
  ret void
}